target datalayout = "e-m:e-p270:32:32-p271:32:32-p272:64:64-i64:64-i128:128-f80:128-n8:16:32:64-S128"
target triple = "x86_64-pc-linux-gnu"

%struct.dtTileCacheLayer = type { ptr, i8, ptr, ptr, ptr, ptr }
%struct.dtTileCacheLayerHeader = type { i32, i32, i32, i32, i32, [3 x float], [3 x float], i16, i16, i8, i8, i8, i8, i8, i8 }

@__const._ZL25debugDrawTileCachePortalsP11duDebugDrawRK16dtTileCacheLayerff.segs = private unnamed_addr constant [16 x i32] [i32 0, i32 0, i32 0, i32 1, i32 0, i32 1, i32 1, i32 1, i32 1, i32 1, i32 1, i32 0, i32 1, i32 0, i32 0, i32 0], align 16

; Function Attrs: mustprogress nounwind uwtable
define linkonce_odr noundef i32 @_Z6duRGBAiiii(i32 noundef %0, i32 noundef %1, i32 noundef %2, i32 noundef %3) #2 comdat {
  %5 = alloca i32, align 4
  %6 = alloca i32, align 4
  %7 = alloca i32, align 4
  %8 = alloca i32, align 4
  store i32 %0, ptr %5, align 4
  store i32 %1, ptr %6, align 4
  store i32 %2, ptr %7, align 4
  store i32 %3, ptr %8, align 4
  %9 = load i32, ptr %5, align 4
  %10 = load i32, ptr %6, align 4
  %11 = shl i32 %10, 8
  %12 = or i32 %9, %11
  %13 = load i32, ptr %7, align 4
  %14 = shl i32 %13, 16
  %15 = or i32 %12, %14
  %16 = load i32, ptr %8, align 4
  %17 = shl i32 %16, 24
  %18 = or i32 %15, %17
  ret i32 %18
}

; Function Attrs: mustprogress uwtable
define internal void @_ZL25debugDrawTileCachePortalsP11duDebugDrawRK16dtTileCacheLayerff(ptr noundef %0, ptr noundef nonnull align 8 dereferenceable(48) %1, float noundef %2, float noundef %3) #0 {
  %5 = alloca ptr, align 8
  %6 = alloca ptr, align 8
  %7 = alloca float, align 4
  %8 = alloca float, align 4
  %9 = alloca i32, align 4
  %10 = alloca i32, align 4
  %11 = alloca ptr, align 8
  %12 = alloca i32, align 4
  %13 = alloca [16 x i32], align 16
  %14 = alloca i32, align 4
  %15 = alloca i32, align 4
  %16 = alloca i32, align 4
  %17 = alloca i32, align 4
  %18 = alloca i32, align 4
  %19 = alloca ptr, align 8
  %20 = alloca float, align 4
  %21 = alloca float, align 4
  %22 = alloca float, align 4
  %23 = alloca float, align 4
  %24 = alloca float, align 4
  %25 = alloca float, align 4
  store ptr %0, ptr %5, align 8
  store ptr %1, ptr %6, align 8
  store float %2, ptr %7, align 4
  store float %3, ptr %8, align 4
  %26 = load ptr, ptr %6, align 8
  %27 = getelementptr inbounds %struct.dtTileCacheLayer, ptr %26, i32 0, i32 0
  %28 = load ptr, ptr %27, align 8
  %29 = getelementptr inbounds %struct.dtTileCacheLayerHeader, ptr %28, i32 0, i32 9
  %30 = load i8, ptr %29, align 4
  %31 = zext i8 %30 to i32
  store i32 %31, ptr %9, align 4
  %32 = load ptr, ptr %6, align 8
  %33 = getelementptr inbounds %struct.dtTileCacheLayer, ptr %32, i32 0, i32 0
  %34 = load ptr, ptr %33, align 8
  %35 = getelementptr inbounds %struct.dtTileCacheLayerHeader, ptr %34, i32 0, i32 10
  %36 = load i8, ptr %35, align 1
  %37 = zext i8 %36 to i32
  store i32 %37, ptr %10, align 4
  %38 = load ptr, ptr %6, align 8
  %39 = getelementptr inbounds %struct.dtTileCacheLayer, ptr %38, i32 0, i32 0
  %40 = load ptr, ptr %39, align 8
  %41 = getelementptr inbounds %struct.dtTileCacheLayerHeader, ptr %40, i32 0, i32 5
  %42 = getelementptr inbounds [3 x float], ptr %41, i64 0, i64 0
  store ptr %42, ptr %11, align 8
  %43 = call noundef i32 @_Z6duRGBAiiii(i32 noundef 255, i32 noundef 255, i32 noundef 255, i32 noundef 255)
  store i32 %43, ptr %12, align 4
  call void @llvm.memcpy.p0.p0.i64(ptr align 16 %13, ptr align 16 @__const._ZL25debugDrawTileCachePortalsP11duDebugDrawRK16dtTileCacheLayerff.segs, i64 64, i1 false)
  %44 = load ptr, ptr %5, align 8
  %45 = load ptr, ptr %44, align 8
  %46 = getelementptr inbounds ptr, ptr %45, i64 4
  %47 = load ptr, ptr %46, align 8
  call void %47(ptr noundef nonnull align 8 dereferenceable(8) %44, i32 noundef 1, float noundef 2.000000e+00)
  store i32 0, ptr %14, align 4
  br label %48

48:                                               ; preds = %182, %4
  %49 = load i32, ptr %14, align 4
  %50 = load i32, ptr %10, align 4
  %51 = icmp slt i32 %49, %50
  br i1 %51, label %52, label %185

52:                                               ; preds = %48
  store i32 0, ptr %15, align 4
  br label %53

53:                                               ; preds = %178, %52
  %54 = load i32, ptr %15, align 4
  %55 = load i32, ptr %9, align 4
  %56 = icmp slt i32 %54, %55
  br i1 %56, label %57, label %181

57:                                               ; preds = %53
  %58 = load i32, ptr %15, align 4
  %59 = load i32, ptr %14, align 4
  %60 = load i32, ptr %9, align 4
  %61 = mul nsw i32 %59, %60
  %62 = add nsw i32 %58, %61
  store i32 %62, ptr %16, align 4
  %63 = load ptr, ptr %6, align 8
  %64 = getelementptr inbounds %struct.dtTileCacheLayer, ptr %63, i32 0, i32 2
  %65 = load ptr, ptr %64, align 8
  %66 = load i32, ptr %16, align 4
  %67 = sext i32 %66 to i64
  %68 = getelementptr inbounds i8, ptr %65, i64 %67
  %69 = load i8, ptr %68, align 1
  %70 = zext i8 %69 to i32
  store i32 %70, ptr %17, align 4
  %71 = load i32, ptr %17, align 4
  %72 = icmp eq i32 %71, 255
  br i1 %72, label %73, label %74

73:                                               ; preds = %57
  br label %178

74:                                               ; preds = %57
  store i32 0, ptr %18, align 4
  br label %75

75:                                               ; preds = %174, %74
  %76 = load i32, ptr %18, align 4
  %77 = icmp slt i32 %76, 4
  br i1 %77, label %78, label %177

78:                                               ; preds = %75
  %79 = load ptr, ptr %6, align 8
  %80 = getelementptr inbounds %struct.dtTileCacheLayer, ptr %79, i32 0, i32 4
  %81 = load ptr, ptr %80, align 8
  %82 = load i32, ptr %16, align 4
  %83 = sext i32 %82 to i64
  %84 = getelementptr inbounds i8, ptr %81, i64 %83
  %85 = load i8, ptr %84, align 1
  %86 = zext i8 %85 to i32
  %87 = load i32, ptr %18, align 4
  %88 = add nsw i32 %87, 4
  %89 = shl i32 1, %88
  %90 = and i32 %86, %89
  %91 = icmp ne i32 %90, 0
  br i1 %91, label %92, label %173

92:                                               ; preds = %78
  %93 = load i32, ptr %18, align 4
  %94 = mul nsw i32 %93, 4
  %95 = sext i32 %94 to i64
  %96 = getelementptr inbounds [16 x i32], ptr %13, i64 0, i64 %95
  store ptr %96, ptr %19, align 8
  %97 = load ptr, ptr %11, align 8
  %98 = getelementptr inbounds float, ptr %97, i64 0
  %99 = load float, ptr %98, align 4
  %100 = load i32, ptr %15, align 4
  %101 = load ptr, ptr %19, align 8
  %102 = getelementptr inbounds i32, ptr %101, i64 0
  %103 = load i32, ptr %102, align 4
  %104 = add nsw i32 %100, %103
  %105 = sitofp i32 %104 to float
  %106 = load float, ptr %7, align 4
  %107 = call float @llvm.fmuladd.f32(float %105, float %106, float %99)
  store float %107, ptr %20, align 4
  %108 = load ptr, ptr %11, align 8
  %109 = getelementptr inbounds float, ptr %108, i64 1
  %110 = load float, ptr %109, align 4
  %111 = load i32, ptr %17, align 4
  %112 = add nsw i32 %111, 2
  %113 = sitofp i32 %112 to float
  %114 = load float, ptr %8, align 4
  %115 = call float @llvm.fmuladd.f32(float %113, float %114, float %110)
  store float %115, ptr %21, align 4
  %116 = load ptr, ptr %11, align 8
  %117 = getelementptr inbounds float, ptr %116, i64 2
  %118 = load float, ptr %117, align 4
  %119 = load i32, ptr %14, align 4
  %120 = load ptr, ptr %19, align 8
  %121 = getelementptr inbounds i32, ptr %120, i64 1
  %122 = load i32, ptr %121, align 4
  %123 = add nsw i32 %119, %122
  %124 = sitofp i32 %123 to float
  %125 = load float, ptr %7, align 4
  %126 = call float @llvm.fmuladd.f32(float %124, float %125, float %118)
  store float %126, ptr %22, align 4
  %127 = load ptr, ptr %11, align 8
  %128 = getelementptr inbounds float, ptr %127, i64 0
  %129 = load float, ptr %128, align 4
  %130 = load i32, ptr %15, align 4
  %131 = load ptr, ptr %19, align 8
  %132 = getelementptr inbounds i32, ptr %131, i64 2
  %133 = load i32, ptr %132, align 4
  %134 = add nsw i32 %130, %133
  %135 = sitofp i32 %134 to float
  %136 = load float, ptr %7, align 4
  %137 = call float @llvm.fmuladd.f32(float %135, float %136, float %129)
  store float %137, ptr %23, align 4
  %138 = load ptr, ptr %11, align 8
  %139 = getelementptr inbounds float, ptr %138, i64 1
  %140 = load float, ptr %139, align 4
  %141 = load i32, ptr %17, align 4
  %142 = add nsw i32 %141, 2
  %143 = sitofp i32 %142 to float
  %144 = load float, ptr %8, align 4
  %145 = call float @llvm.fmuladd.f32(float %143, float %144, float %140)
  store float %145, ptr %24, align 4
  %146 = load ptr, ptr %11, align 8
  %147 = getelementptr inbounds float, ptr %146, i64 2
  %148 = load float, ptr %147, align 4
  %149 = load i32, ptr %14, align 4
  %150 = load ptr, ptr %19, align 8
  %151 = getelementptr inbounds i32, ptr %150, i64 3
  %152 = load i32, ptr %151, align 4
  %153 = add nsw i32 %149, %152
  %154 = sitofp i32 %153 to float
  %155 = load float, ptr %7, align 4
  %156 = call float @llvm.fmuladd.f32(float %154, float %155, float %148)
  store float %156, ptr %25, align 4
  %157 = load ptr, ptr %5, align 8
  %158 = load float, ptr %20, align 4
  %159 = load float, ptr %21, align 4
  %160 = load float, ptr %22, align 4
  %161 = load i32, ptr %12, align 4
  %162 = load ptr, ptr %157, align 8
  %163 = getelementptr inbounds ptr, ptr %162, i64 6
  %164 = load ptr, ptr %163, align 8
  call void %164(ptr noundef nonnull align 8 dereferenceable(8) %157, float noundef %158, float noundef %159, float noundef %160, i32 noundef %161)
  %165 = load ptr, ptr %5, align 8
  %166 = load float, ptr %23, align 4
  %167 = load float, ptr %24, align 4
  %168 = load float, ptr %25, align 4
  %169 = load i32, ptr %12, align 4
  %170 = load ptr, ptr %165, align 8
  %171 = getelementptr inbounds ptr, ptr %170, i64 6
  %172 = load ptr, ptr %171, align 8
  call void %172(ptr noundef nonnull align 8 dereferenceable(8) %165, float noundef %166, float noundef %167, float noundef %168, i32 noundef %169)
  br label %173

173:                                              ; preds = %92, %78
  br label %174

174:                                              ; preds = %173
  %175 = load i32, ptr %18, align 4
  %176 = add nsw i32 %175, 1
  store i32 %176, ptr %18, align 4
  br label %75, !llvm.loop !29

177:                                              ; preds = %75
  br label %178

178:                                              ; preds = %177, %73
  %179 = load i32, ptr %15, align 4
  %180 = add nsw i32 %179, 1
  store i32 %180, ptr %15, align 4
  br label %53, !llvm.loop !30

181:                                              ; preds = %53
  br label %182

182:                                              ; preds = %181
  %183 = load i32, ptr %14, align 4
  %184 = add nsw i32 %183, 1
  store i32 %184, ptr %14, align 4
  br label %48, !llvm.loop !31

185:                                              ; preds = %48
  %186 = load ptr, ptr %5, align 8
  %187 = load ptr, ptr %186, align 8
  %188 = getelementptr inbounds ptr, ptr %187, i64 9
  %189 = load ptr, ptr %188, align 8
  call void %189(ptr noundef nonnull align 8 dereferenceable(8) %186)
  ret void
}