; Function Attrs: mustprogress uwtable
define internal fastcc void @_ZL25debugDrawTileCachePortalsP11duDebugDrawRK16dtTileCacheLayerff(ptr noundef %0, ptr noundef nonnull readonly align 8 captures(none) dereferenceable(48) %1, float noundef %2, float noundef %3) unnamed_addr #0 {
  %5 = load ptr, ptr %1, align 8
  %6 = getelementptr inbounds nuw i8, ptr %5, i64 48
  %7 = load i8, ptr %6, align 4
  %8 = getelementptr inbounds nuw i8, ptr %5, i64 49
  %9 = load i8, ptr %8, align 1
  %10 = getelementptr inbounds nuw i8, ptr %5, i64 20
  %11 = load ptr, ptr %0, align 8
  %12 = getelementptr inbounds nuw i8, ptr %11, i64 32
  %13 = load ptr, ptr %12, align 8
  tail call void %13(ptr noundef nonnull align 8 dereferenceable(8) %0, i32 noundef 1, float noundef 2.000000e+00)
  %.not = icmp eq i8 %9, 0
  br i1 %.not, label %._crit_edge62, label %.preheader58.lr.ph

.preheader58.lr.ph:                               ; preds = %4
  %.not63 = icmp eq i8 %7, 0
  %14 = getelementptr inbounds nuw i8, ptr %1, i64 16
  %15 = getelementptr inbounds nuw i8, ptr %1, i64 32
  %16 = getelementptr inbounds nuw i8, ptr %5, i64 24
  %17 = getelementptr inbounds nuw i8, ptr %5, i64 28
  br i1 %.not63, label %._crit_edge62, label %.preheader58.us.preheader

.preheader58.us.preheader:                        ; preds = %.preheader58.lr.ph
  %18 = zext i8 %7 to i64
  %wide.trip.count73 = zext i8 %9 to i64
  br label %.preheader58.us

.preheader58.us:                                  ; preds = %.preheader58.us.preheader, %._crit_edge.us
  %indvars.iv70 = phi i64 [ 0, %.preheader58.us.preheader ], [ %indvars.iv.next71, %._crit_edge.us ]
  %19 = mul nuw nsw i64 %indvars.iv70, %18
  %20 = trunc nuw nsw i64 %indvars.iv70 to i32
  br label %21

21:                                               ; preds = %.preheader58.us, %.loopexit.us
  %indvars.iv66 = phi i64 [ 0, %.preheader58.us ], [ %indvars.iv.next67, %.loopexit.us ]
  %22 = add nuw nsw i64 %indvars.iv66, %19
  %23 = load ptr, ptr %14, align 8
  %24 = getelementptr inbounds nuw i8, ptr %23, i64 %22
  %25 = load i8, ptr %24, align 1
  %26 = icmp eq i8 %25, -1
  br i1 %26, label %.loopexit.us, label %.preheader.us

27:                                               ; preds = %.preheader.us, %67
  %indvars.iv = phi i64 [ 0, %.preheader.us ], [ %indvars.iv.next, %67 ]
  %28 = load ptr, ptr %15, align 8
  %29 = getelementptr inbounds nuw i8, ptr %28, i64 %22
  %30 = load i8, ptr %29, align 1
  %31 = zext i8 %30 to i32
  %32 = trunc nuw nsw i64 %indvars.iv to i32
  %33 = shl nuw nsw i32 16, %32
  %34 = and i32 %33, %31
  %.not.us = icmp eq i32 %34, 0
  br i1 %.not.us, label %67, label %35

35:                                               ; preds = %27
  %36 = shl nuw nsw i64 %indvars.iv, 2
  %37 = getelementptr inbounds nuw [16 x i32], ptr @__const._ZL25debugDrawTileCachePortalsP11duDebugDrawRK16dtTileCacheLayerff.segs, i64 0, i64 %36
  %38 = load float, ptr %10, align 4
  %39 = load i32, ptr %37, align 16
  %40 = add nsw i32 %39, %71
  %41 = sitofp i32 %40 to float
  %42 = tail call float @llvm.fmuladd.f32(float %41, float %2, float %38)
  %43 = load float, ptr %16, align 4
  %44 = tail call float @llvm.fmuladd.f32(float %70, float %3, float %43)
  %45 = load float, ptr %17, align 4
  %46 = getelementptr inbounds nuw i8, ptr %37, i64 4
  %47 = load i32, ptr %46, align 4
  %48 = add nsw i32 %47, %20
  %49 = sitofp i32 %48 to float
  %50 = tail call float @llvm.fmuladd.f32(float %49, float %2, float %45)
  %51 = getelementptr inbounds nuw i8, ptr %37, i64 8
  %52 = load i32, ptr %51, align 8
  %53 = add nsw i32 %52, %71
  %54 = sitofp i32 %53 to float
  %55 = tail call float @llvm.fmuladd.f32(float %54, float %2, float %38)
  %56 = getelementptr inbounds nuw i8, ptr %37, i64 12
  %57 = load i32, ptr %56, align 4
  %58 = add nsw i32 %57, %20
  %59 = sitofp i32 %58 to float
  %60 = tail call float @llvm.fmuladd.f32(float %59, float %2, float %45)
  %61 = load ptr, ptr %0, align 8
  %62 = getelementptr inbounds nuw i8, ptr %61, i64 48
  %63 = load ptr, ptr %62, align 8
  tail call void %63(ptr noundef nonnull align 8 dereferenceable(8) %0, float noundef %42, float noundef %44, float noundef %50, i32 noundef -1)
  %64 = load ptr, ptr %0, align 8
  %65 = getelementptr inbounds nuw i8, ptr %64, i64 48
  %66 = load ptr, ptr %65, align 8
  tail call void %66(ptr noundef nonnull align 8 dereferenceable(8) %0, float noundef %55, float noundef %44, float noundef %60, i32 noundef -1)
  br label %67

67:                                               ; preds = %35, %27
  %indvars.iv.next = add nuw nsw i64 %indvars.iv, 1
  %exitcond.not = icmp eq i64 %indvars.iv.next, 4
  br i1 %exitcond.not, label %.loopexit.us, label %27, !llvm.loop !30

.loopexit.us:                                     ; preds = %67, %21
  %indvars.iv.next67 = add nuw nsw i64 %indvars.iv66, 1
  %exitcond69.not = icmp eq i64 %indvars.iv.next67, %18
  br i1 %exitcond69.not, label %._crit_edge.us, label %21, !llvm.loop !31

.preheader.us:                                    ; preds = %21
  %68 = zext i8 %25 to i32
  %69 = add nuw nsw i32 %68, 2
  %70 = uitofp nneg i32 %69 to float
  %71 = trunc nuw nsw i64 %indvars.iv66 to i32
  br label %27

._crit_edge.us:                                   ; preds = %.loopexit.us
  %indvars.iv.next71 = add nuw nsw i64 %indvars.iv70, 1
  %exitcond74.not = icmp eq i64 %indvars.iv.next71, %wide.trip.count73
  br i1 %exitcond74.not, label %._crit_edge62, label %.preheader58.us, !llvm.loop !32

._crit_edge62:                                    ; preds = %._crit_edge.us, %.preheader58.lr.ph, %4
  %72 = load ptr, ptr %0, align 8
  %73 = getelementptr inbounds nuw i8, ptr %72, i64 72
  %74 = load ptr, ptr %73, align 8
  tail call void %74(ptr noundef nonnull align 8 dereferenceable(8) %0)
  ret void
}